target datalayout = "e-m:e-p270:32:32-p271:32:32-p272:64:64-i64:64-i128:128-f80:128-n8:16:32:64-S128"
target triple = "x86_64-pc-linux-gnu"

%struct.rb_data_type_struct = type { ptr, %struct.anon, ptr, ptr, i64 }
%struct.anon = type { ptr, ptr, ptr, ptr, [1 x ptr] }
%struct.rb_digest_metadata_t = type { i32, i64, i64, i64, ptr, ptr, ptr }
%struct.RTypedData = type { %struct.RBasic, ptr, i64, ptr }
%struct.RBasic = type { i64, i64 }

@metadata_type = internal constant %struct.rb_data_type_struct { ptr @.str.23, %struct.anon zeroinitializer, ptr null, ptr null, i64 0 }, align 8
@id_metadata = internal global i64 0, align 8
@rb_eRuntimeError = external global i64, align 8
@.str.33 = private unnamed_addr constant [50 x i8] c"Digest::Base cannot be directly inherited in Ruby\00", align 1
@rb_eTypeError = external global i64, align 8
@.str.34 = private unnamed_addr constant [43 x i8] c"%li\0B::metadata is not initialized properly\00", align 1
@.str.35 = private unnamed_addr constant [49 x i8] c"%li\0B(%li\0B)::metadata is not initialized properly\00", align 1
@.str.36 = private unnamed_addr constant [32 x i8] c"Incompatible digest API version\00", align 1

; Function Attrs: nounwind sspstrong uwtable
define internal ptr @get_metadata_ptr(i64 noundef %0) #0 {
  %2 = alloca ptr, align 8
  %3 = alloca i64, align 8
  %4 = alloca ptr, align 8
  %5 = alloca i32, align 4
  store i64 %0, ptr %3, align 8, !tbaa !10
  call void @llvm.lifetime.start.p0(i64 8, ptr %4) #21
  %6 = load i64, ptr %3, align 8, !tbaa !10
  %7 = call i32 @rb_typeddata_is_kind_of(i64 noundef %6, ptr noundef @metadata_type)
  %8 = icmp ne i32 %7, 0
  br i1 %8, label %10, label %9

9:                                                ; preds = %1
  store ptr null, ptr %2, align 8
  store i32 1, ptr %5, align 4
  br label %16

10:                                               ; preds = %1
  %11 = load i64, ptr %3, align 8, !tbaa !10
  %12 = inttoptr i64 %11 to ptr
  %13 = getelementptr inbounds nuw %struct.RTypedData, ptr %12, i32 0, i32 3
  %14 = load ptr, ptr %13, align 8, !tbaa !20
  store ptr %14, ptr %4, align 8, !tbaa !6
  %15 = load ptr, ptr %4, align 8, !tbaa !6
  store ptr %15, ptr %2, align 8
  store i32 1, ptr %5, align 4
  br label %16

16:                                               ; preds = %10, %9
  call void @llvm.lifetime.end.p0(i64 8, ptr %4) #21
  %17 = load ptr, ptr %2, align 8
  ret ptr %17
}

; Function Attrs: inlinehint nounwind sspstrong willreturn memory(none) uwtable
define internal zeroext i1 @RB_NIL_P(i64 noundef %0) #11 {
  %2 = alloca i64, align 8
  store i64 %0, ptr %2, align 8, !tbaa !10
  %3 = load i64, ptr %2, align 8, !tbaa !10
  %4 = icmp eq i64 %3, 4
  ret i1 %4
}

; Function Attrs: nounwind sspstrong uwtable
define internal ptr @get_digest_base_metadata(i64 noundef %0) #0 {
  %2 = alloca i64, align 8
  %3 = alloca i64, align 8
  %4 = alloca i64, align 8
  %5 = alloca ptr, align 8
  store i64 %0, ptr %2, align 8, !tbaa !10
  call void @llvm.lifetime.start.p0(i64 8, ptr %3) #21
  call void @llvm.lifetime.start.p0(i64 8, ptr %4) #21
  call void @llvm.lifetime.start.p0(i64 8, ptr %5) #21
  %6 = load i64, ptr %2, align 8, !tbaa !10
  store i64 %6, ptr %3, align 8, !tbaa !10
  br label %7

7:                                                ; preds = %21, %1
  %8 = load i64, ptr %3, align 8, !tbaa !10
  %9 = call zeroext i1 @RB_NIL_P(i64 noundef %8) #22
  %10 = xor i1 %9, true
  br i1 %10, label %11, label %24

11:                                               ; preds = %7
  %12 = load i64, ptr %3, align 8, !tbaa !10
  %13 = load i64, ptr @id_metadata, align 8, !tbaa !10
  %14 = call i64 @rb_ivar_defined(i64 noundef %12, i64 noundef %13)
  %15 = icmp ne i64 %14, 0
  br i1 %15, label %16, label %20

16:                                               ; preds = %11
  %17 = load i64, ptr %3, align 8, !tbaa !10
  %18 = load i64, ptr @id_metadata, align 8, !tbaa !10
  %19 = call i64 @rb_ivar_get(i64 noundef %17, i64 noundef %18)
  store i64 %19, ptr %4, align 8, !tbaa !10
  br label %24

20:                                               ; preds = %11
  br label %21

21:                                               ; preds = %20
  %22 = load i64, ptr %3, align 8, !tbaa !10
  %23 = call i64 @rb_class_superclass(i64 noundef %22) #19
  store i64 %23, ptr %3, align 8, !tbaa !10
  br label %7, !llvm.loop !46

24:                                               ; preds = %16, %7
  %25 = load i64, ptr %3, align 8, !tbaa !10
  %26 = call zeroext i1 @RB_NIL_P(i64 noundef %25) #22
  br i1 %26, label %27, label %29

27:                                               ; preds = %24
  %28 = load i64, ptr @rb_eRuntimeError, align 8, !tbaa !10
  call void (i64, ptr, ...) @rb_raise(i64 noundef %28, ptr noundef @.str.33) #20
  unreachable

29:                                               ; preds = %24
  %30 = load i64, ptr %4, align 8, !tbaa !10
  %31 = call ptr @get_metadata_ptr(i64 noundef %30)
  store ptr %31, ptr %5, align 8, !tbaa !6
  %32 = load ptr, ptr %5, align 8, !tbaa !6
  %33 = icmp ne ptr %32, null
  br i1 %33, label %45, label %34

34:                                               ; preds = %29
  %35 = load i64, ptr %3, align 8, !tbaa !10
  %36 = load i64, ptr %2, align 8, !tbaa !10
  %37 = icmp eq i64 %35, %36
  br i1 %37, label %38, label %41

38:                                               ; preds = %34
  %39 = load i64, ptr @rb_eTypeError, align 8, !tbaa !10
  %40 = load i64, ptr %2, align 8, !tbaa !10
  call void (i64, ptr, ...) @rb_raise(i64 noundef %39, ptr noundef @.str.34, i64 noundef %40) #20
  unreachable

41:                                               ; preds = %34
  %42 = load i64, ptr @rb_eTypeError, align 8, !tbaa !10
  %43 = load i64, ptr %2, align 8, !tbaa !10
  %44 = load i64, ptr %3, align 8, !tbaa !10
  call void (i64, ptr, ...) @rb_raise(i64 noundef %42, ptr noundef @.str.35, i64 noundef %43, i64 noundef %44) #20
  unreachable

45:                                               ; preds = %29
  %46 = load ptr, ptr %5, align 8, !tbaa !6
  %47 = getelementptr inbounds nuw %struct.rb_digest_metadata_t, ptr %46, i32 0, i32 0
  %48 = load i32, ptr %47, align 8, !tbaa !47
  switch i32 %48, label %49 [
    i32 3, label %51
  ]

49:                                               ; preds = %45
  %50 = load i64, ptr @rb_eRuntimeError, align 8, !tbaa !10
  call void (i64, ptr, ...) @rb_raise(i64 noundef %50, ptr noundef @.str.36) #20
  unreachable

51:                                               ; preds = %45
  %52 = load ptr, ptr %5, align 8, !tbaa !6
  call void @llvm.lifetime.end.p0(i64 8, ptr %5) #21
  call void @llvm.lifetime.end.p0(i64 8, ptr %4) #21
  call void @llvm.lifetime.end.p0(i64 8, ptr %3) #21
  ret ptr %52
}